target datalayout = "e-m:e-p270:32:32-p271:32:32-p272:64:64-i64:64-i128:128-f80:128-n8:16:32:64-S128"
target triple = "x86_64-pc-linux-gnu"

%struct.malloc_chunk = type { i64, i64, ptr, ptr }

; Function Attrs: nounwind uwtable
define hidden ptr @dlcalloc(i64 noundef %0, i64 noundef %1) #0 {
  %3 = alloca i64, align 8
  %4 = alloca i64, align 8
  %5 = alloca ptr, align 8
  %6 = alloca i64, align 8
  store i64 %0, ptr %3, align 8, !tbaa !3
  store i64 %1, ptr %4, align 8, !tbaa !3
  call void @llvm.lifetime.start.p0(i64 8, ptr %5) #9
  call void @llvm.lifetime.start.p0(i64 8, ptr %6) #9
  store i64 0, ptr %6, align 8, !tbaa !3
  %7 = load i64, ptr %3, align 8, !tbaa !3
  %8 = icmp ne i64 %7, 0
  br i1 %8, label %9, label %26

9:                                                ; preds = %2
  %10 = load i64, ptr %3, align 8, !tbaa !3
  %11 = load i64, ptr %4, align 8, !tbaa !3
  %12 = mul i64 %10, %11
  store i64 %12, ptr %6, align 8, !tbaa !3
  %13 = load i64, ptr %3, align 8, !tbaa !3
  %14 = load i64, ptr %4, align 8, !tbaa !3
  %15 = or i64 %13, %14
  %16 = and i64 %15, -65536
  %17 = icmp ne i64 %16, 0
  br i1 %17, label %18, label %25

18:                                               ; preds = %9
  %19 = load i64, ptr %6, align 8, !tbaa !3
  %20 = load i64, ptr %3, align 8, !tbaa !3
  %21 = udiv i64 %19, %20
  %22 = load i64, ptr %4, align 8, !tbaa !3
  %23 = icmp ne i64 %21, %22
  br i1 %23, label %24, label %25

24:                                               ; preds = %18
  store i64 -1, ptr %6, align 8, !tbaa !3
  br label %25

25:                                               ; preds = %24, %18, %9
  br label %26

26:                                               ; preds = %25, %2
  %27 = load i64, ptr %6, align 8, !tbaa !3
  %28 = call ptr @dlmalloc(i64 noundef %27)
  store ptr %28, ptr %5, align 8, !tbaa !16
  %29 = load ptr, ptr %5, align 8, !tbaa !16
  %30 = icmp ne ptr %29, null
  br i1 %30, label %31, label %41

31:                                               ; preds = %26
  %32 = load ptr, ptr %5, align 8, !tbaa !16
  %33 = getelementptr inbounds i8, ptr %32, i64 -16
  %34 = getelementptr inbounds nuw %struct.malloc_chunk, ptr %33, i32 0, i32 1
  %35 = load i64, ptr %34, align 8, !tbaa !21
  %36 = and i64 %35, 3
  %37 = icmp eq i64 %36, 0
  br i1 %37, label %41, label %38

38:                                               ; preds = %31
  %39 = load ptr, ptr %5, align 8, !tbaa !16
  %40 = load i64, ptr %6, align 8, !tbaa !3
  call void @llvm.memset.p0.i64(ptr align 1 %39, i8 0, i64 %40, i1 false)
  br label %41

41:                                               ; preds = %38, %31, %26
  %42 = load ptr, ptr %5, align 8, !tbaa !16
  call void @llvm.lifetime.end.p0(i64 8, ptr %6) #9
  call void @llvm.lifetime.end.p0(i64 8, ptr %5) #9
  ret ptr %42
}