; Function Attrs: nounwind uwtable
define hidden ptr @dlcalloc(i64 noundef %0, i64 noundef %1) local_unnamed_addr #0 {
  %.not = icmp eq i64 %0, 0
  br i1 %.not, label %6, label %3

3:                                                ; preds = %2
  %mul = tail call { i64, i1 } @llvm.umul.with.overflow.i64(i64 %0, i64 %1)
  %mul.val = extractvalue { i64, i1 } %mul, 0
  %4 = or i64 %1, %0
  %.not15 = icmp ult i64 %4, 65536
  br i1 %.not15, label %6, label %5

5:                                                ; preds = %3
  %mul.ov = extractvalue { i64, i1 } %mul, 1
  %spec.store.select = select i1 %mul.ov, i64 -1, i64 %mul.val
  br label %6

6:                                                ; preds = %5, %3, %2
  %.0 = phi i64 [ %spec.store.select, %5 ], [ %mul.val, %3 ], [ 0, %2 ]
  %7 = tail call ptr @dlmalloc(i64 noundef %.0)
  %.not17 = icmp eq ptr %7, null
  br i1 %.not17, label %14, label %8

8:                                                ; preds = %6
  %9 = getelementptr inbounds i8, ptr %7, i64 -8
  %10 = load i64, ptr %9, align 8, !tbaa !23
  %11 = and i64 %10, 3
  %12 = icmp eq i64 %11, 0
  br i1 %12, label %14, label %13

13:                                               ; preds = %8
  tail call void @llvm.memset.p0.i64(ptr nonnull align 1 %7, i8 0, i64 %.0, i1 false)
  br label %14

14:                                               ; preds = %13, %8, %6
  ret ptr %7
}